Certificate:
    Data:
        Version: 3 (0x2)
        Serial Number: 35 (0x23)
        Signature Algorithm: ecdsa-with-SHA256
        Issuer: CN=Policy CA0
        Validity
            Not Before: Aug 27 14:52:33 2024 GMT
            Not After : Jun 28 14:52:33 2085 GMT
        Subject: CN=Intermediate CA 0
        Subject Public Key Info:
            Public Key Algorithm: id-ecPublicKey
                Public-Key: (384 bit)
                pub:
                    04:57:c8:0d:18:57:41:fd:3c:0b:fd:d0:8b:52:36:
                    cf:01:a9:86:9b:3d:79:09:b6:23:fa:20:46:be:48:
                    e6:98:b6:ab:8a:10:cc:4b:f0:bc:fd:02:26:4b:2a:
                    3b:0f:62:41:33:0f:fe:4f:d0:04:64:55:15:3f:6a:
                    97:84:2c:91:b0:2c:53:c1:00:30:ef:8e:c8:b6:b0:
                    2d:c1:9f:99:f5:85:57:48:a3:fa:29:f2:0c:b9:a9:
                    e8:0b:d5:a7:09:0d:03
                ASN1 OID: secp384r1
                NIST CURVE: P-384
        X509v3 extensions:
            X509v3 Subject Key Identifier: 
                EF:FE:5A:0E:5B:05:83:57:48:D6:86:FA:F7:35:EC:E5:CC:B3:3C:06
            X509v3 Authority Key Identifier: 
                58:42:3F:AF:DF:2B:17:E9:9E:CA:CC:E5:18:9E:FC:60:7A:BF:B1:F1
            X509v3 Basic Constraints: critical
                CA:TRUE
            X509v3 Extended Key Usage: 
                E-mail Protection
    Signature Algorithm: ecdsa-with-SHA256
    Signature Value:
        30:65:02:30:59:a7:be:d8:93:68:74:2c:8a:5c:1e:56:6e:f9:
        0f:6e:cc:3e:5d:8c:4b:e8:4c:2e:a9:26:b7:1c:40:76:50:81:
        a4:2a:04:30:71:30:8d:93:97:bb:ac:eb:01:40:95:4a:02:31:
        00:be:7a:54:1e:f9:73:5a:f5:2d:49:64:3c:89:bd:90:13:c8:
        ee:9c:94:7a:1a:d3:be:fc:75:08:64:38:af:4c:23:f8:7b:8a:
        83:d1:b2:54:0d:00:e0:07:e1:ab:40:b6:45
-----BEGIN CERTIFICATE-----
MIIBxzCCAU2gAwIBAgIBIzAKBggqhkjOPQQDAjAVMRMwEQYDVQQDDApQb2xpY3kg
Q0EwMCAXDTI0MDgyNzE0NTIzM1oYDzIwODUwNjI4MTQ1MjMzWjAcMRowGAYDVQQD
DBFJbnRlcm1lZGlhdGUgQ0EgMDB2MBAGByqGSM49AgEGBSuBBAAiA2IABFfIDRhX
Qf08C/3Qi1I2zwGphps9eQm2I/ogRr5I5pi2q4oQzEvwvP0CJksqOw9iQTMP/k/Q
BGRVFT9ql4QskbAsU8EAMO+OyLawLcGfmfWFV0ij+inyDLmp6AvVpwkNA6NoMGYw
HQYDVR0OBBYEFO/+Wg5bBYNXSNaG+vc17OXMszwGMB8GA1UdIwQYMBaAFFhCP6/f
KxfpnsrM5Rie/GB6v7HxMA8GA1UdEwEB/wQFMAMBAf8wEwYDVR0lBAwwCgYIKwYB
BQUHAwQwCgYIKoZIzj0EAwIDaAAwZQIwWae+2JNodCyKXB5WbvkPbsw+XYxL6Ewu
qSa3HEB2UIGkKgQwcTCNk5e7rOsBQJVKAjEAvnpUHvlzWvUtSWQ8ib2QE8junJR6
GtO+/HUIZDivTCP4e4qD0bJUDQDgB+GrQLZF
-----END CERTIFICATE-----
-----BEGIN PRIVATE KEY-----
MIG2AgEAMBAGByqGSM49AgEGBSuBBAAiBIGeMIGbAgEBBDBBQkr88DRndotSmgdT
HVAKz2j+Tnxh+ASGaJnD+kg7FRt9Mfl2SI+ctLlhVH3GvPahZANiAARXyA0YV0H9
PAv90ItSNs8BqYabPXkJtiP6IEa+SOaYtquKEMxL8Lz9AiZLKjsPYkEzD/5P0ARk
VRU/apeELJGwLFPBADDvjsi2sC3Bn5n1hVdIo/op8gy5qegL1acJDQM=
-----END PRIVATE KEY-----
