Certificate:
    Data:
        Version: 3 (0x2)
        Serial Number: 35 (0x23)
        Signature Algorithm: ecdsa-with-SHA256
        Issuer: CN=Policy CA1
        Validity
            Not Before: Aug 27 14:52:33 2024 GMT
            Not After : Jun 28 14:52:33 2085 GMT
        Subject: CN=Intermediate CA 1
        Subject Public Key Info:
            Public Key Algorithm: id-ecPublicKey
                Public-Key: (384 bit)
                pub:
                    04:1e:d1:40:3e:af:64:e1:59:3a:31:96:da:1e:fb:
                    cf:da:18:76:06:e3:41:9f:2c:13:78:bd:e0:2c:2e:
                    8c:48:cc:15:f9:e6:6e:9b:38:f0:e6:11:6a:33:e6:
                    5f:79:39:85:be:e2:4a:d4:38:f0:6a:f8:82:81:80:
                    f6:b0:2d:f4:aa:79:4c:66:94:ca:d7:12:81:22:ae:
                    db:67:fa:25:91:0c:eb:12:52:6d:1b:8d:a3:99:17:
                    d8:be:a2:46:d6:d6:4a
                ASN1 OID: secp384r1
                NIST CURVE: P-384
        X509v3 extensions:
            X509v3 Subject Key Identifier: 
                28:CA:F7:58:EA:76:65:68:2B:2A:21:FC:14:86:BA:82:28:0E:4D:46
            X509v3 Authority Key Identifier: 
                C4:8C:D0:35:7B:D0:4A:CE:9E:2D:D6:83:79:06:C8:90:94:98:51:DD
            X509v3 Basic Constraints: critical
                CA:TRUE
            X509v3 Extended Key Usage: 
                E-mail Protection
    Signature Algorithm: ecdsa-with-SHA256
    Signature Value:
        30:64:02:30:77:5d:14:d8:e7:ba:4f:56:96:6f:33:05:4b:00:
        3d:80:1f:e2:92:c3:55:03:e6:77:e7:24:2b:2e:7e:2b:7b:22:
        19:9c:9d:16:f4:02:84:70:fa:6c:66:95:e1:f9:47:5d:02:30:
        1d:d2:63:60:f8:2f:0c:a3:7c:b4:29:02:3c:0a:80:11:40:8e:
        3c:82:a2:b1:09:7e:d7:32:17:9d:7b:e8:41:cc:4d:0c:34:9d:
        4a:46:18:d3:3f:85:2e:f2:38:e8:2a:d6
-----BEGIN CERTIFICATE-----
MIIBxjCCAU2gAwIBAgIBIzAKBggqhkjOPQQDAjAVMRMwEQYDVQQDDApQb2xpY3kg
Q0ExMCAXDTI0MDgyNzE0NTIzM1oYDzIwODUwNjI4MTQ1MjMzWjAcMRowGAYDVQQD
DBFJbnRlcm1lZGlhdGUgQ0EgMTB2MBAGByqGSM49AgEGBSuBBAAiA2IABB7RQD6v
ZOFZOjGW2h77z9oYdgbjQZ8sE3i94CwujEjMFfnmbps48OYRajPmX3k5hb7iStQ4
8Gr4goGA9rAt9Kp5TGaUytcSgSKu22f6JZEM6xJSbRuNo5kX2L6iRtbWSqNoMGYw
HQYDVR0OBBYEFCjK91jqdmVoKyoh/BSGuoIoDk1GMB8GA1UdIwQYMBaAFMSM0DV7
0ErOni3Wg3kGyJCUmFHdMA8GA1UdEwEB/wQFMAMBAf8wEwYDVR0lBAwwCgYIKwYB
BQUHAwQwCgYIKoZIzj0EAwIDZwAwZAIwd10U2Oe6T1aWbzMFSwA9gB/iksNVA+Z3
5yQrLn4reyIZnJ0W9AKEcPpsZpXh+UddAjAd0mNg+C8Mo3y0KQI8CoARQI48gqKx
CX7XMhede+hBzE0MNJ1KRhjTP4Uu8jjoKtY=
-----END CERTIFICATE-----
-----BEGIN PRIVATE KEY-----
MIG2AgEAMBAGByqGSM49AgEGBSuBBAAiBIGeMIGbAgEBBDAPRG9AcnzrvHR9dFLw
XgPDdfSMSMc9qUUtbUlF93HsqaGWxyF4M6ENxwNfParhg1+hZANiAAQe0UA+r2Th
WToxltoe+8/aGHYG40GfLBN4veAsLoxIzBX55m6bOPDmEWoz5l95OYW+4krUOPBq
+IKBgPawLfSqeUxmlMrXEoEirttn+iWRDOsSUm0bjaOZF9i+okbW1ko=
-----END PRIVATE KEY-----
