Certificate:
    Data:
        Version: 3 (0x2)
        Serial Number: 35 (0x23)
        Signature Algorithm: ecdsa-with-SHA256
        Issuer: CN=Intermediate CA 0
        Validity
            Not Before: Aug 27 14:52:33 2024 GMT
            Not After : Jun 28 14:52:33 2085 GMT
        Subject: CN=Leaf 0
        Subject Public Key Info:
            Public Key Algorithm: id-ecPublicKey
                Public-Key: (384 bit)
                pub:
                    04:47:40:5d:a6:7b:a9:32:f0:3b:97:72:b0:92:f0:
                    d0:5a:46:e0:d3:33:e5:17:90:79:d7:70:a1:9e:fb:
                    ba:cd:97:07:30:e8:7e:55:ac:6b:4a:bc:44:da:71:
                    b3:ca:17:74:0a:68:23:de:96:eb:59:34:d6:35:0f:
                    cb:f0:c2:87:64:53:64:14:b0:50:76:51:54:d3:45:
                    68:7a:d4:93:97:8a:e8:13:3f:5e:f3:42:4e:ea:c1:
                    f8:f4:ff:30:a5:51:e5
                ASN1 OID: secp384r1
                NIST CURVE: P-384
        X509v3 extensions:
            X509v3 Subject Key Identifier: 
                CA:5A:87:59:74:83:77:33:9D:C1:7A:A8:6D:F7:64:BC:C5:15:FE:FF
            X509v3 Authority Key Identifier: 
                EF:FE:5A:0E:5B:05:83:57:48:D6:86:FA:F7:35:EC:E5:CC:B3:3C:06
            X509v3 Basic Constraints: 
                CA:FALSE
            X509v3 Key Usage: 
                Digital Signature, Non Repudiation, Key Encipherment
            X509v3 Extended Key Usage: 
                E-mail Protection
    Signature Algorithm: ecdsa-with-SHA256
    Signature Value:
        30:65:02:31:00:a3:cb:ce:ce:91:28:04:6f:97:72:d7:5c:e1:
        24:7c:d5:7c:23:a7:b3:a6:ad:28:67:e9:09:1b:3c:48:f3:f3:
        fc:bc:f1:75:c0:70:50:5b:4f:66:2e:56:98:94:9b:c6:79:02:
        30:12:ab:0e:24:02:65:85:91:84:17:41:7f:66:24:94:0f:46:
        2e:6a:9c:0f:6a:6c:43:81:65:9f:a5:6a:c1:7f:40:9d:70:47:
        3d:00:98:e8:bb:49:ba:4b:0b:97:09:bb:b6
-----BEGIN CERTIFICATE-----
MIIByjCCAVCgAwIBAgIBIzAKBggqhkjOPQQDAjAcMRowGAYDVQQDDBFJbnRlcm1l
ZGlhdGUgQ0EgMDAgFw0yNDA4MjcxNDUyMzNaGA8yMDg1MDYyODE0NTIzM1owETEP
MA0GA1UEAwwGTGVhZiAwMHYwEAYHKoZIzj0CAQYFK4EEACIDYgAER0BdpnupMvA7
l3KwkvDQWkbg0zPlF5B513Chnvu6zZcHMOh+VaxrSrxE2nGzyhd0Cmgj3pbrWTTW
NQ/L8MKHZFNkFLBQdlFU00VoetSTl4roEz9e80JO6sH49P8wpVHlo28wbTAdBgNV
HQ4EFgQUylqHWXSDdzOdwXqobfdkvMUV/v8wHwYDVR0jBBgwFoAU7/5aDlsFg1dI
1ob69zXs5cyzPAYwCQYDVR0TBAIwADALBgNVHQ8EBAMCBeAwEwYDVR0lBAwwCgYI
KwYBBQUHAwQwCgYIKoZIzj0EAwIDaAAwZQIxAKPLzs6RKARvl3LXXOEkfNV8I6ez
pq0oZ+kJGzxI8/P8vPF1wHBQW09mLlaYlJvGeQIwEqsOJAJlhZGEF0F/ZiSUD0Yu
apwPamxDgWWfpWrBf0CdcEc9AJjou0m6SwuXCbu2
-----END CERTIFICATE-----
-----BEGIN PRIVATE KEY-----
MIG2AgEAMBAGByqGSM49AgEGBSuBBAAiBIGeMIGbAgEBBDATBWGdQ0CBJCnQZ/KT
46UTeG8PsqrJXNITF3HuENAriUipOI29hETa488pnye9fpOhZANiAARHQF2me6ky
8DuXcrCS8NBaRuDTM+UXkHnXcKGe+7rNlwcw6H5VrGtKvETacbPKF3QKaCPelutZ
NNY1D8vwwodkU2QUsFB2UVTTRWh61JOXiugTP17zQk7qwfj0/zClUeU=
-----END PRIVATE KEY-----
