Certificate:
    Data:
        Version: 3 (0x2)
        Serial Number: 35 (0x23)
        Signature Algorithm: ecdsa-with-SHA256
        Issuer: CN=Intermediate CA 1
        Validity
            Not Before: Aug 27 14:52:33 2024 GMT
            Not After : Jun 28 14:52:33 2085 GMT
        Subject: CN=Leaf 1
        Subject Public Key Info:
            Public Key Algorithm: id-ecPublicKey
                Public-Key: (384 bit)
                pub:
                    04:9c:f6:29:72:11:68:1d:57:47:89:20:85:ac:41:
                    a6:a6:e0:0e:4f:cf:7e:77:d4:73:05:7a:ae:d2:fe:
                    0a:12:58:ee:f8:e0:99:2b:dd:8b:59:91:95:0f:0d:
                    c2:28:1f:52:0a:d0:4b:cb:a4:14:98:31:18:46:23:
                    e1:1b:64:4e:a9:07:04:ae:ed:8e:20:b1:68:be:b2:
                    02:24:84:f3:0d:d0:70:92:63:45:64:72:70:3f:df:
                    3a:58:67:56:ee:5a:1b
                ASN1 OID: secp384r1
                NIST CURVE: P-384
        X509v3 extensions:
            X509v3 Subject Key Identifier: 
                67:77:AC:2A:35:95:10:B2:1D:51:E8:8F:EB:D9:6C:87:E6:3E:B9:F5
            X509v3 Authority Key Identifier: 
                28:CA:F7:58:EA:76:65:68:2B:2A:21:FC:14:86:BA:82:28:0E:4D:46
            X509v3 Basic Constraints: 
                CA:FALSE
            X509v3 Key Usage: 
                Digital Signature, Non Repudiation, Key Encipherment
            X509v3 Extended Key Usage: 
                E-mail Protection
    Signature Algorithm: ecdsa-with-SHA256
    Signature Value:
        30:64:02:30:30:37:e9:47:98:28:bb:1a:59:23:17:55:0c:3f:
        a2:fe:b0:ba:ae:90:81:37:90:90:c5:2c:43:a1:42:b8:f5:35:
        c5:8e:56:79:e5:5b:0c:a9:2a:44:a7:10:27:49:ab:86:02:30:
        2c:14:8d:9f:2d:7a:96:b7:2e:f2:41:7d:d8:86:72:0a:61:c4:
        b1:5f:e5:c3:60:fb:c4:e5:03:dd:f0:22:03:ab:c8:48:4c:f2:
        37:8d:51:21:87:5a:ec:74:35:de:2e:19
-----BEGIN CERTIFICATE-----
MIIByTCCAVCgAwIBAgIBIzAKBggqhkjOPQQDAjAcMRowGAYDVQQDDBFJbnRlcm1l
ZGlhdGUgQ0EgMTAgFw0yNDA4MjcxNDUyMzNaGA8yMDg1MDYyODE0NTIzM1owETEP
MA0GA1UEAwwGTGVhZiAxMHYwEAYHKoZIzj0CAQYFK4EEACIDYgAEnPYpchFoHVdH
iSCFrEGmpuAOT89+d9RzBXqu0v4KElju+OCZK92LWZGVDw3CKB9SCtBLy6QUmDEY
RiPhG2ROqQcEru2OILFovrICJITzDdBwkmNFZHJwP986WGdW7lobo28wbTAdBgNV
HQ4EFgQUZ3esKjWVELIdUeiP69lsh+Y+ufUwHwYDVR0jBBgwFoAUKMr3WOp2ZWgr
KiH8FIa6gigOTUYwCQYDVR0TBAIwADALBgNVHQ8EBAMCBeAwEwYDVR0lBAwwCgYI
KwYBBQUHAwQwCgYIKoZIzj0EAwIDZwAwZAIwMDfpR5gouxpZIxdVDD+i/rC6rpCB
N5CQxSxDoUK49TXFjlZ55VsMqSpEpxAnSauGAjAsFI2fLXqWty7yQX3YhnIKYcSx
X+XDYPvE5QPd8CIDq8hITPI3jVEhh1rsdDXeLhk=
-----END CERTIFICATE-----
-----BEGIN PRIVATE KEY-----
MIG2AgEAMBAGByqGSM49AgEGBSuBBAAiBIGeMIGbAgEBBDA70RGctjnnuWxYplkS
+7pm7MGJRL9a6BW7NMXly70iCqfK/OqJ0MGi/HBgHYdnbpShZANiAASc9ilyEWgd
V0eJIIWsQaam4A5Pz3531HMFeq7S/goSWO744Jkr3YtZkZUPDcIoH1IK0EvLpBSY
MRhGI+EbZE6pBwSu7Y4gsWi+sgIkhPMN0HCSY0VkcnA/3zpYZ1buWhs=
-----END PRIVATE KEY-----
